target datalayout = "e-m:e-p270:32:32-p271:32:32-p272:64:64-i64:64-i128:128-f80:128-n8:16:32:64-S128"
target triple = "x86_64-pc-linux-gnu"

%struct.rb_data_type_struct = type { ptr, %struct.anon.12, ptr, ptr, i64 }
%struct.anon.12 = type { ptr, ptr, ptr, ptr, [1 x ptr] }
%struct.enum_chain = type { i64, i64 }
%struct.RBasic = type { i64, i64 }
%struct.RArray = type { %struct.RBasic, %union.anon.14 }
%union.anon.14 = type { %struct.anon.15 }
%struct.anon.15 = type { i64, %union.anon.16, ptr }
%union.anon.16 = type { i64 }

@rb_eArgError = external global i64, align 8
@enum_chain_data_type = internal constant %struct.rb_data_type_struct { ptr @.str.21, %struct.anon.12 { ptr @enum_chain_mark, ptr inttoptr (i64 -1 to ptr), ptr @enum_chain_memsize, ptr @enum_chain_compact, [1 x ptr] zeroinitializer }, ptr null, ptr null, i64 1 }, align 8
@.str.147 = private unnamed_addr constant [20 x i8] c"uninitialized chain\00", align 1

; Function Attrs: inlinehint nounwind sspstrong willreturn memory(read) uwtable
define internal i64 @RB_FL_TEST_RAW(i64 noundef %0, i64 noundef %1) #6 {
  %3 = alloca i64, align 8
  %4 = alloca i64, align 8
  store i64 %0, ptr %3, align 8, !tbaa !7
  store i64 %1, ptr %4, align 8, !tbaa !7
  %5 = load i64, ptr %3, align 8, !tbaa !7
  %6 = inttoptr i64 %5 to ptr
  %7 = getelementptr inbounds nuw %struct.RBasic, ptr %6, i32 0, i32 0
  %8 = load i64, ptr %7, align 8, !tbaa !87
  %9 = load i64, ptr %4, align 8, !tbaa !7
  %10 = and i64 %8, %9
  ret i64 %10
}

; Function Attrs: inlinehint nounwind sspstrong willreturn memory(read) uwtable
define internal ptr @rb_array_const_ptr(i64 noundef %0) #6 {
  %2 = alloca ptr, align 8
  %3 = alloca i64, align 8
  store i64 %0, ptr %3, align 8, !tbaa !7
  %4 = load i64, ptr %3, align 8, !tbaa !7
  %5 = call zeroext i1 @RB_FL_ANY_RAW(i64 noundef %4, i64 noundef 8192) #26
  br i1 %5, label %6, label %11

6:                                                ; preds = %1
  %7 = load i64, ptr %3, align 8, !tbaa !7
  %8 = inttoptr i64 %7 to ptr
  %9 = getelementptr inbounds nuw %struct.RArray, ptr %8, i32 0, i32 1
  %10 = getelementptr inbounds [1 x i64], ptr %9, i64 0, i64 0
  store ptr %10, ptr %2, align 8
  br label %17

11:                                               ; preds = %1
  %12 = load i64, ptr %3, align 8, !tbaa !7
  %13 = inttoptr i64 %12 to ptr
  %14 = getelementptr inbounds nuw %struct.RArray, ptr %13, i32 0, i32 1
  %15 = getelementptr inbounds nuw %struct.anon.15, ptr %14, i32 0, i32 2
  %16 = load ptr, ptr %15, align 8, !tbaa !93
  store ptr %16, ptr %2, align 8
  br label %17

17:                                               ; preds = %11, %6
  %18 = load ptr, ptr %2, align 8
  ret ptr %18
}

; Function Attrs: inlinehint nounwind sspstrong willreturn memory(read) uwtable
define internal i64 @RARRAY_EMBED_LEN(i64 noundef %0) #6 {
  %2 = alloca i64, align 8
  %3 = alloca i64, align 8
  store i64 %0, ptr %2, align 8, !tbaa !7
  call void @llvm.lifetime.start.p0(i64 8, ptr %3) #23
  %4 = load i64, ptr %2, align 8, !tbaa !7
  %5 = inttoptr i64 %4 to ptr
  %6 = getelementptr inbounds nuw %struct.RBasic, ptr %5, i32 0, i32 0
  %7 = load i64, ptr %6, align 8, !tbaa !87
  store i64 %7, ptr %3, align 8, !tbaa !7
  %8 = load i64, ptr %3, align 8, !tbaa !7
  %9 = and i64 %8, 4161536
  store i64 %9, ptr %3, align 8, !tbaa !7
  %10 = load i64, ptr %3, align 8, !tbaa !7
  %11 = lshr i64 %10, 15
  store i64 %11, ptr %3, align 8, !tbaa !7
  %12 = load i64, ptr %3, align 8, !tbaa !7
  call void @llvm.lifetime.end.p0(i64 8, ptr %3) #23
  ret i64 %12
}

; Function Attrs: inlinehint nounwind sspstrong willreturn memory(read) uwtable
define internal zeroext i1 @RB_FL_ANY_RAW(i64 noundef %0, i64 noundef %1) #6 {
  %3 = alloca i64, align 8
  %4 = alloca i64, align 8
  store i64 %0, ptr %3, align 8, !tbaa !7
  store i64 %1, ptr %4, align 8, !tbaa !7
  %5 = load i64, ptr %3, align 8, !tbaa !7
  %6 = load i64, ptr %4, align 8, !tbaa !7
  %7 = call i64 @RB_FL_TEST_RAW(i64 noundef %5, i64 noundef %6) #26
  %8 = icmp ne i64 %7, 0
  ret i1 %8
}

; Function Attrs: inlinehint nounwind sspstrong willreturn memory(none) uwtable
define internal zeroext i1 @RB_UNDEF_P(i64 noundef %0) #2 {
  %2 = alloca i64, align 8
  store i64 %0, ptr %2, align 8, !tbaa !7
  %3 = load i64, ptr %2, align 8, !tbaa !7
  %4 = icmp eq i64 %3, 36
  ret i1 %4
}

; Function Attrs: inlinehint nounwind sspstrong willreturn memory(read) uwtable
define internal i64 @RARRAY_AREF(i64 noundef %0, i64 noundef %1) #6 {
  %3 = alloca i64, align 8
  %4 = alloca i64, align 8
  %5 = alloca i64, align 8
  store i64 %0, ptr %3, align 8, !tbaa !7
  store i64 %1, ptr %4, align 8, !tbaa !7
  call void @llvm.lifetime.start.p0(i64 8, ptr %5) #23
  %6 = load i64, ptr %3, align 8, !tbaa !7
  %7 = call ptr @rb_array_const_ptr(i64 noundef %6) #26
  %8 = load i64, ptr %4, align 8, !tbaa !7
  %9 = getelementptr i64, ptr %7, i64 %8
  %10 = load i64, ptr %9, align 8, !tbaa !7
  store i64 %10, ptr %5, align 8, !tbaa !7
  %11 = load i64, ptr %5, align 8, !tbaa !7
  call void @llvm.lifetime.end.p0(i64 8, ptr %5) #23
  ret i64 %11
}

; Function Attrs: inlinehint nounwind sspstrong willreturn memory(read) uwtable
define internal i64 @rb_array_len(i64 noundef %0) #6 {
  %2 = alloca i64, align 8
  %3 = alloca i64, align 8
  store i64 %0, ptr %3, align 8, !tbaa !7
  %4 = load i64, ptr %3, align 8, !tbaa !7
  %5 = call zeroext i1 @RB_FL_ANY_RAW(i64 noundef %4, i64 noundef 8192) #26
  br i1 %5, label %6, label %9

6:                                                ; preds = %1
  %7 = load i64, ptr %3, align 8, !tbaa !7
  %8 = call i64 @RARRAY_EMBED_LEN(i64 noundef %7) #26
  store i64 %8, ptr %2, align 8
  br label %15

9:                                                ; preds = %1
  %10 = load i64, ptr %3, align 8, !tbaa !7
  %11 = inttoptr i64 %10 to ptr
  %12 = getelementptr inbounds nuw %struct.RArray, ptr %11, i32 0, i32 1
  %13 = getelementptr inbounds nuw %struct.anon.15, ptr %12, i32 0, i32 0
  %14 = load i64, ptr %13, align 8, !tbaa !93
  store i64 %14, ptr %2, align 8
  br label %15

15:                                               ; preds = %9, %6
  %16 = load i64, ptr %2, align 8
  ret i64 %16
}

; Function Attrs: nounwind sspstrong uwtable
define internal ptr @enum_chain_ptr(i64 noundef %0) #0 {
  %2 = alloca i64, align 8
  %3 = alloca ptr, align 8
  store i64 %0, ptr %2, align 8, !tbaa !7
  call void @llvm.lifetime.start.p0(i64 8, ptr %3) #23
  %4 = load i64, ptr %2, align 8, !tbaa !7
  %5 = call ptr @rb_check_typeddata(i64 noundef %4, ptr noundef @enum_chain_data_type)
  store ptr %5, ptr %3, align 8, !tbaa !63
  %6 = load ptr, ptr %3, align 8, !tbaa !63
  %7 = icmp ne ptr %6, null
  br i1 %7, label %8, label %13

8:                                                ; preds = %1
  %9 = load ptr, ptr %3, align 8, !tbaa !63
  %10 = getelementptr inbounds nuw %struct.enum_chain, ptr %9, i32 0, i32 0
  %11 = load i64, ptr %10, align 8, !tbaa !65
  %12 = call zeroext i1 @RB_UNDEF_P(i64 noundef %11) #24
  br i1 %12, label %13, label %15

13:                                               ; preds = %8, %1
  %14 = load i64, ptr @rb_eArgError, align 8, !tbaa !7
  call void (i64, ptr, ...) @rb_raise(i64 noundef %14, ptr noundef @.str.147) #25
  unreachable

15:                                               ; preds = %8
  %16 = load ptr, ptr %3, align 8, !tbaa !63
  call void @llvm.lifetime.end.p0(i64 8, ptr %3) #23
  ret ptr %16
}

; Function Attrs: nounwind sspstrong uwtable
define dso_local i64 @rb_enumeratorize_with_size(i64 noundef %0, i64 noundef %1, i32 noundef %2, ptr noundef %3, ptr noundef %4) #0 {
  %6 = alloca i64, align 8
  %7 = alloca i64, align 8
  %8 = alloca i32, align 4
  %9 = alloca ptr, align 8
  %10 = alloca ptr, align 8
  store i64 %0, ptr %6, align 8, !tbaa !7
  store i64 %1, ptr %7, align 8, !tbaa !7
  store i32 %2, ptr %8, align 4, !tbaa !11
  store ptr %3, ptr %9, align 8, !tbaa !13
  store ptr %4, ptr %10, align 8, !tbaa !16
  %11 = load i64, ptr %6, align 8, !tbaa !7
  %12 = load i64, ptr %7, align 8, !tbaa !7
  %13 = load i32, ptr %8, align 4, !tbaa !11
  %14 = load ptr, ptr %9, align 8, !tbaa !13
  %15 = load ptr, ptr %10, align 8, !tbaa !16
  %16 = call i32 @rb_keyword_given_p()
  %17 = call i64 @rb_enumeratorize_with_size_kw(i64 noundef %11, i64 noundef %12, i32 noundef %13, ptr noundef %14, ptr noundef %15, i32 noundef %16)
  ret i64 %17
}

; Function Attrs: nounwind sspstrong uwtable
define internal i64 @enum_chain_each(i32 noundef %0, ptr noundef %1, i64 noundef %2) #0 {
  %4 = alloca i64, align 8
  %5 = alloca i32, align 4
  %6 = alloca ptr, align 8
  %7 = alloca i64, align 8
  %8 = alloca i64, align 8
  %9 = alloca i64, align 8
  %10 = alloca ptr, align 8
  %11 = alloca i64, align 8
  %12 = alloca i32, align 4
  store i32 %0, ptr %5, align 4, !tbaa !11
  store ptr %1, ptr %6, align 8, !tbaa !13
  store i64 %2, ptr %7, align 8, !tbaa !7
  call void @llvm.lifetime.start.p0(i64 8, ptr %8) #23
  call void @llvm.lifetime.start.p0(i64 8, ptr %9) #23
  call void @llvm.lifetime.start.p0(i64 8, ptr %10) #23
  call void @llvm.lifetime.start.p0(i64 8, ptr %11) #23
  br label %13

13:                                               ; preds = %3
  %14 = call i32 @rb_block_given_p()
  %15 = icmp ne i32 %14, 0
  br i1 %15, label %26, label %16

16:                                               ; preds = %13
  %17 = load i64, ptr %7, align 8, !tbaa !7
  %18 = call i64 @rb_frame_this_func()
  %19 = call i64 @rb_id2sym(i64 noundef %18)
  %20 = load i32, ptr %5, align 4, !tbaa !11
  %21 = load ptr, ptr %6, align 8, !tbaa !13
  %22 = load i32, ptr %5, align 4, !tbaa !11
  %23 = icmp sgt i32 %22, 0
  %24 = select i1 %23, ptr @enum_chain_enum_no_size, ptr @enum_chain_enum_size
  %25 = call i64 @rb_enumeratorize_with_size(i64 noundef %17, i64 noundef %19, i32 noundef %20, ptr noundef %21, ptr noundef %24)
  store i64 %25, ptr %4, align 8
  store i32 1, ptr %12, align 4
  br label %56

26:                                               ; preds = %13
  br label %27

27:                                               ; preds = %26
  br label %28

28:                                               ; preds = %27
  %29 = load i64, ptr %7, align 8, !tbaa !7
  %30 = call ptr @enum_chain_ptr(i64 noundef %29)
  store ptr %30, ptr %10, align 8, !tbaa !63
  %31 = load ptr, ptr %10, align 8, !tbaa !63
  %32 = getelementptr inbounds nuw %struct.enum_chain, ptr %31, i32 0, i32 0
  %33 = load i64, ptr %32, align 8, !tbaa !65
  store i64 %33, ptr %8, align 8, !tbaa !7
  %34 = call i64 @rb_block_proc()
  store i64 %34, ptr %9, align 8, !tbaa !7
  store i64 0, ptr %11, align 8, !tbaa !7
  br label %35

35:                                               ; preds = %51, %28
  %36 = load i64, ptr %11, align 8, !tbaa !7
  %37 = load i64, ptr %8, align 8, !tbaa !7
  %38 = call i64 @rb_array_len(i64 noundef %37) #26
  %39 = icmp slt i64 %36, %38
  br i1 %39, label %40, label %54

40:                                               ; preds = %35
  %41 = load i64, ptr %11, align 8, !tbaa !7
  %42 = load ptr, ptr %10, align 8, !tbaa !63
  %43 = getelementptr inbounds nuw %struct.enum_chain, ptr %42, i32 0, i32 1
  store i64 %41, ptr %43, align 8, !tbaa !67
  %44 = load i64, ptr %8, align 8, !tbaa !7
  %45 = load i64, ptr %11, align 8, !tbaa !7
  %46 = call i64 @RARRAY_AREF(i64 noundef %44, i64 noundef %45) #26
  %47 = load i32, ptr %5, align 4, !tbaa !11
  %48 = load ptr, ptr %6, align 8, !tbaa !13
  %49 = load i64, ptr %9, align 8, !tbaa !7
  %50 = call i64 @rb_funcall_with_block(i64 noundef %46, i64 noundef 3073, i32 noundef %47, ptr noundef %48, i64 noundef %49)
  br label %51

51:                                               ; preds = %40
  %52 = load i64, ptr %11, align 8, !tbaa !7
  %53 = add i64 %52, 1
  store i64 %53, ptr %11, align 8, !tbaa !7
  br label %35, !llvm.loop !68

54:                                               ; preds = %35
  %55 = load i64, ptr %7, align 8, !tbaa !7
  store i64 %55, ptr %4, align 8
  store i32 1, ptr %12, align 4
  br label %56

56:                                               ; preds = %54, %16
  call void @llvm.lifetime.end.p0(i64 8, ptr %11) #23
  call void @llvm.lifetime.end.p0(i64 8, ptr %10) #23
  call void @llvm.lifetime.end.p0(i64 8, ptr %9) #23
  call void @llvm.lifetime.end.p0(i64 8, ptr %8) #23
  %57 = load i64, ptr %4, align 8
  ret i64 %57
}