; Function Attrs: nounwind sspstrong uwtable
define internal i64 @enum_chain_each(i32 noundef %0, ptr noundef %1, i64 noundef %2) #0 {
  %4 = tail call i32 @rb_block_given_p() #18
  %.not = icmp eq i32 %4, 0
  br i1 %.not, label %5, label %12

5:                                                ; preds = %3
  %6 = tail call i64 @rb_frame_this_func() #18
  %7 = tail call i64 @rb_id2sym(i64 noundef %6) #18
  %8 = icmp sgt i32 %0, 0
  %9 = select i1 %8, ptr @enum_chain_enum_no_size, ptr @enum_chain_enum_size
  %10 = tail call i32 @rb_keyword_given_p() #18
  %11 = tail call range(i64 1, -7) i64 @rb_enumeratorize_with_size_kw(i64 noundef %2, i64 noundef %7, i32 noundef %0, ptr noundef %1, ptr noundef nonnull %9, i32 noundef %10)
  br label %.loopexit

12:                                               ; preds = %3
  %13 = tail call ptr @rb_check_typeddata(i64 noundef %2, ptr noundef nonnull @enum_chain_data_type) #18
  %.not.i = icmp eq ptr %13, null
  br i1 %.not.i, label %17, label %14

14:                                               ; preds = %12
  %15 = load i64, ptr %13, align 8, !tbaa !62
  %16 = icmp eq i64 %15, 36
  br i1 %16, label %17, label %enum_chain_ptr.exit

17:                                               ; preds = %14, %12
  %18 = load i64, ptr @rb_eArgError, align 8, !tbaa !7
  tail call void (i64, ptr, ...) @rb_raise(i64 noundef %18, ptr noundef nonnull @.str.147) #19
  unreachable

enum_chain_ptr.exit:                              ; preds = %14
  %19 = tail call i64 @rb_block_proc() #18
  %20 = inttoptr i64 %15 to ptr
  %21 = getelementptr inbounds nuw i8, ptr %20, i64 16
  %22 = getelementptr inbounds nuw i8, ptr %13, i64 8
  %23 = getelementptr inbounds nuw i8, ptr %20, i64 32
  br label %24

24:                                               ; preds = %RARRAY_AREF.exit, %enum_chain_ptr.exit
  %.0 = phi i64 [ 0, %enum_chain_ptr.exit ], [ %38, %RARRAY_AREF.exit ]
  %25 = load i64, ptr %20, align 8, !tbaa !21
  %26 = and i64 %25, 8192
  %.not.i18 = icmp eq i64 %26, 0
  br i1 %.not.i18, label %rb_array_len.exit, label %rb_array_len.exit.thread

rb_array_len.exit:                                ; preds = %24
  %27 = load i64, ptr %21, align 8, !tbaa !44
  %28 = icmp slt i64 %.0, %27
  br i1 %28, label %33, label %.loopexit

rb_array_len.exit.thread:                         ; preds = %24
  %29 = lshr i64 %25, 15
  %30 = and i64 %29, 127
  %31 = icmp samesign ult i64 %.0, %30
  br i1 %31, label %32, label %.loopexit

32:                                               ; preds = %rb_array_len.exit.thread
  store i64 %.0, ptr %22, align 8, !tbaa !64
  br label %RARRAY_AREF.exit

33:                                               ; preds = %rb_array_len.exit
  store i64 %.0, ptr %22, align 8, !tbaa !64
  %34 = load ptr, ptr %23, align 8, !tbaa !44
  br label %RARRAY_AREF.exit

RARRAY_AREF.exit:                                 ; preds = %32, %33
  %.0.i.i = phi ptr [ %21, %32 ], [ %34, %33 ]
  %35 = getelementptr i64, ptr %.0.i.i, i64 %.0
  %36 = load i64, ptr %35, align 8, !tbaa !7
  %37 = tail call i64 @rb_funcall_with_block(i64 noundef %36, i64 noundef 3073, i32 noundef %0, ptr noundef %1, i64 noundef %19) #18
  %38 = add nuw nsw i64 %.0, 1
  br label %24, !llvm.loop !65

.loopexit:                                        ; preds = %rb_array_len.exit.thread, %rb_array_len.exit, %5
  %.017 = phi i64 [ %11, %5 ], [ %2, %rb_array_len.exit ], [ %2, %rb_array_len.exit.thread ]
  ret i64 %.017
}